Certificate:
    Data:
        Version: 3 (0x2)
        Serial Number: 3 (0x3)
    Signature Algorithm: sha256WithRSAEncryption
        Issuer: C=US, ST=California, L=Sunnyvale, O=Test CA, Limited, OU=Server Research Department, CN=test.root.ca/emailAddress=test@ca.org
        Validity
            Not Before: Dec  5 08:00:39 2015 GMT
            Not After : Aug 31 08:00:39 2018 GMT
        Subject: C=US, ST=California, L=Sunnyvale, O=Quorum Inc, CN=node3
        Subject Public Key Info:
            Public Key Algorithm: rsaEncryption
                Public-Key: (2048 bit)
                Modulus:
                    00:cd:df:00:1c:fe:30:f6:97:ec:3b:67:4b:8d:75:
                    9b:44:67:93:89:6c:c8:85:bc:86:ef:88:eb:e3:62:
                    f0:5d:ee:88:a2:94:3f:81:93:8e:7b:4e:e2:24:35:
                    42:22:af:6b:99:51:4f:d4:de:1e:89:3b:9c:af:0c:
                    7e:d9:c0:88:7d:0e:9f:5a:33:d0:ae:ab:57:c2:a8:
                    b1:9c:ee:da:41:bf:70:52:2c:24:7c:09:68:76:a3:
                    1d:1b:7f:6d:e7:ab:a7:5d:d9:8b:4a:1e:14:ed:31:
                    72:c6:65:45:0e:98:0c:21:6c:0b:84:66:e9:8c:3b:
                    95:23:5e:e1:c5:cb:d9:b7:ef:68:fb:42:f5:40:b6:
                    9d:a8:b5:d2:1e:13:68:9a:0e:60:51:c9:c2:02:bd:
                    71:68:a3:64:ad:03:e0:a1:7e:23:11:ef:9e:39:c8:
                    b8:61:0f:6e:3f:06:87:0f:58:a6:e0:96:f8:37:2a:
                    b0:ac:04:ba:79:9b:56:5d:38:31:04:e5:4a:83:35:
                    d2:16:af:9b:a7:fb:dc:55:94:6c:81:6d:7b:cf:40:
                    34:e3:a0:8f:ce:72:68:cc:0b:b3:ef:65:90:5c:6e:
                    68:af:b7:e0:70:a1:2e:25:30:38:fb:a8:5e:5d:39:
                    5a:78:e5:ad:d7:16:07:cf:a3:69:c0:60:6d:10:d2:
                    b2:dd
                Exponent: 65537 (0x10001)
        X509v3 extensions:
            X509v3 Subject Key Identifier: 
                E6:63:7A:2B:FC:B1:2D:83:CE:FB:E5:BF:36:F7:AE:F2:62:A3:32:32
            X509v3 Authority Key Identifier: 
                keyid:16:83:7B:0D:1B:36:26:C9:08:FC:21:ED:EA:DE:6F:02:B5:18:B1:37

            X509v3 Basic Constraints: 
                CA:FALSE
            X509v3 Key Usage: 
                Digital Signature, Key Encipherment
            X509v3 Subject Alternative Name: 
                DNS:node3.quorum.org
            Netscape Comment: 
                OpenSSL Generated Certificate
    Signature Algorithm: sha256WithRSAEncryption
         26:04:a1:09:5e:a3:a9:09:f9:87:d3:b9:e4:77:28:b4:4a:a4:
         e4:00:9f:46:ce:14:bb:05:00:26:50:6f:76:0c:3f:ba:a5:c6:
         4d:dc:85:f3:88:6c:bf:de:21:3f:76:3a:41:68:ec:47:50:7e:
         90:17:20:68:91:98:fa:bc:7c:7e:9d:ef:6d:87:c5:6b:b7:a3:
         f8:78:5d:fc:8e:ce:76:a4:29:30:72:6b:92:88:36:0f:93:ce:
         0e:2c:9c:a7:40:c1:c5:a7:ca:97:e1:47:15:70:35:2a:8f:41:
         0e:e8:7b:33:da:6f:05:eb:60:5c:a6:a0:dd:3e:50:86:dd:fa:
         e4:47:de:27:2c:a1:2e:67:7c:58:87:a9:2c:9b:99:59:b4:93:
         02:8b:3f:6c:e6:3b:2e:9a:7f:9f:d4:ef:4e:08:8d:d7:af:31:
         84:48:e4:42:04:4d:27:2d:ab:a7:ad:aa:f9:ce:82:9b:cc:50:
         22:85:cd:9e:30:6c:04:1e:8f:e8:6a:52:ec:bb:b4:25:dd:c7:
         d7:49:7e:df:e5:06:b3:4d:79:8c:ea:de:17:18:32:90:21:f4:
         30:47:e3:7b:51:24:72:32:16:a7:ee:6e:2c:09:a8:ea:38:aa:
         7e:e3:2a:75:b6:56:86:02:71:6b:8d:a2:e1:0b:c9:e8:9d:ba:
         51:ba:ee:7e:b8:af:4a:9d:9d:55:af:22:20:37:d1:b7:33:52:
         ce:44:18:6c:2d:7c:ae:12:3e:0e:37:4e:13:0d:53:8e:30:a8:
         fd:0b:a0:b0:2b:53:41:ba:1b:1b:00:a6:c4:aa:3f:1c:0a:3b:
         81:3e:69:73:48:ab:83:6c:ea:65:69:66:1c:60:05:2f:41:ca:
         89:99:f3:ad:31:62:3d:a7:9d:ec:a4:f7:cb:06:4d:ab:3f:67:
         dc:cb:a1:06:28:b3:f4:a5:c6:c2:3d:d7:9f:fe:97:4b:5a:63:
         e2:bc:5f:5d:c2:97:c9:9e:a7:98:9e:39:33:2d:54:8a:ec:0c:
         ab:f9:5f:a5:a5:6d:5a:d1:cc:59:e6:8b:c5:d1:5d:68:de:39:
         f2:a3:c3:3b:fd:4f:9d:29:5d:bb:99:e9:50:17:22:bd:cd:f1:
         3c:72:d1:51:ff:d0:bb:67:44:51:b5:c2:ba:2e:9a:13:8a:5f:
         c8:be:97:f7:17:0e:fa:b8:74:8a:27:a1:53:60:2e:13:44:7e:
         aa:d6:4e:8b:52:45:58:25:9c:06:89:e8:d0:e8:f7:29:5c:f5:
         af:05:e7:29:f2:cd:39:43:e8:14:06:77:da:14:b2:4c:8a:ea:
         aa:ca:cf:5f:bb:3a:03:c8:84:6b:dd:6c:38:80:64:6c:aa:7b:
         d1:03:29:7f:bc:b6:8d:78
-----BEGIN CERTIFICATE-----
MIIFJzCCAw+gAwIBAgIBAzANBgkqhkiG9w0BAQsFADCBqTELMAkGA1UEBhMCVVMx
EzARBgNVBAgMCkNhbGlmb3JuaWExEjAQBgNVBAcMCVN1bm55dmFsZTEZMBcGA1UE
CgwQVGVzdCBDQSwgTGltaXRlZDEjMCEGA1UECwwaU2VydmVyIFJlc2VhcmNoIERl
cGFydG1lbnQxFTATBgNVBAMMDHRlc3Qucm9vdC5jYTEaMBgGCSqGSIb3DQEJARYL
dGVzdEBjYS5vcmcwHhcNMTUxMjA1MDgwMDM5WhcNMTgwODMxMDgwMDM5WjBbMQsw
CQYDVQQGEwJVUzETMBEGA1UECAwKQ2FsaWZvcm5pYTESMBAGA1UEBwwJU3Vubnl2
YWxlMRMwEQYDVQQKDApRdW9ydW0gSW5jMQ4wDAYDVQQDDAVub2RlMzCCASIwDQYJ
KoZIhvcNAQEBBQADggEPADCCAQoCggEBAM3fABz+MPaX7DtnS411m0Rnk4lsyIW8
hu+I6+Ni8F3uiKKUP4GTjntO4iQ1QiKva5lRT9TeHok7nK8MftnAiH0On1oz0K6r
V8KosZzu2kG/cFIsJHwJaHajHRt/beerp13Zi0oeFO0xcsZlRQ6YDCFsC4Rm6Yw7
lSNe4cXL2bfvaPtC9UC2nai10h4TaJoOYFHJwgK9cWijZK0D4KF+IxHvnjnIuGEP
bj8Ghw9YpuCW+DcqsKwEunmbVl04MQTlSoM10havm6f73FWUbIFte89ANOOgj85y
aMwLs+9lkFxuaK+34HChLiUwOPuoXl05WnjlrdcWB8+jacBgbRDSst0CAwEAAaOB
pjCBozAdBgNVHQ4EFgQU5mN6K/yxLYPO++W/Nveu8mKjMjIwHwYDVR0jBBgwFoAU
FoN7DRs2JskI/CHt6t5vArUYsTcwCQYDVR0TBAIwADALBgNVHQ8EBAMCBaAwGwYD
VR0RBBQwEoIQbm9kZTMucXVvcnVtLm9yZzAsBglghkgBhvhCAQ0EHxYdT3BlblNT
TCBHZW5lcmF0ZWQgQ2VydGlmaWNhdGUwDQYJKoZIhvcNAQELBQADggIBACYEoQle
o6kJ+YfTueR3KLRKpOQAn0bOFLsFACZQb3YMP7qlxk3chfOIbL/eIT92OkFo7EdQ
fpAXIGiRmPq8fH6d722HxWu3o/h4XfyOznakKTBya5KINg+Tzg4snKdAwcWnypfh
RxVwNSqPQQ7oezPabwXrYFymoN0+UIbd+uRH3icsoS5nfFiHqSybmVm0kwKLP2zm
Oy6af5/U704IjdevMYRI5EIETSctq6etqvnOgpvMUCKFzZ4wbAQej+hqUuy7tCXd
x9dJft/lBrNNeYzq3hcYMpAh9DBH43tRJHIyFqfubiwJqOo4qn7jKnW2VoYCcWuN
ouELyeidulG67n64r0qdnVWvIiA30bczUs5EGGwtfK4SPg43ThMNU44wqP0LoLAr
U0G6GxsApsSqPxwKO4E+aXNIq4Ns6mVpZhxgBS9ByomZ860xYj2nneyk98sGTas/
Z9zLoQYos/SlxsI915/+l0taY+K8X13Cl8mep5ieOTMtVIrsDKv5X6WlbVrRzFnm
i8XRXWjeOfKjwzv9T50pXbuZ6VAXIr3N8Txy0VH/0LtnRFG1wroumhOKX8i+l/cX
Dvq4dIonoVNgLhNEfqrWTotSRVglnAaJ6NDo9ylc9a8F5ynyzTlD6BQGd9oUskyK
6qrKz1+7OgPIhGvdbDiAZGyqe9EDKX+8to14
-----END CERTIFICATE-----
