Certificate:
    Data:
        Version: 3 (0x2)
        Serial Number: 2 (0x2)
    Signature Algorithm: sha256WithRSAEncryption
        Issuer: C=US, ST=California, L=Sunnyvale, O=Test CA, Limited, OU=Server Research Department, CN=test.root.ca/emailAddress=test@ca.org
        Validity
            Not Before: Dec  5 08:00:19 2015 GMT
            Not After : Aug 31 08:00:19 2018 GMT
        Subject: C=US, ST=California, L=Sunnyvale, O=Quorum Inc, CN=node2
        Subject Public Key Info:
            Public Key Algorithm: rsaEncryption
                Public-Key: (2048 bit)
                Modulus:
                    00:bc:21:de:88:9d:99:08:c5:68:2b:f4:3c:b8:10:
                    39:37:93:09:1c:54:1a:2d:18:d9:a9:02:dd:b9:0d:
                    20:df:0f:b7:7e:bb:eb:40:29:ea:11:27:6f:b9:f9:
                    3e:e4:e1:4a:a1:97:bd:fb:a4:33:a5:64:9d:cd:08:
                    ab:49:43:9e:8e:d5:56:27:e6:70:d5:8b:b2:3f:dc:
                    9e:87:37:70:3a:5e:36:a9:fd:76:0d:f8:ca:d8:46:
                    2d:77:eb:9f:09:07:ad:5b:cd:07:1a:d4:fa:16:56:
                    8a:30:bf:38:32:54:bc:31:c3:aa:5b:f8:8c:55:1e:
                    00:85:e2:66:7b:25:93:44:4e:92:99:d7:c8:5a:e7:
                    1b:33:2e:e9:f7:35:b5:17:e9:88:5a:33:63:eb:92:
                    23:01:c2:ef:9f:13:ba:8b:f8:1e:c8:6f:f9:e6:fb:
                    91:39:ed:6d:b4:92:a1:49:bd:20:7b:e5:60:c8:89:
                    57:83:53:c9:8d:5d:b4:16:be:bd:80:76:82:69:9f:
                    ca:db:98:22:33:34:dd:bb:48:fe:31:96:bc:97:3a:
                    1a:ba:12:93:fa:33:5b:a9:a7:22:7a:6e:6f:b7:12:
                    4b:75:40:59:4f:5b:6e:29:b6:97:ac:a5:19:4d:62:
                    9c:88:34:20:db:0a:f4:df:8b:11:65:4d:04:8d:d7:
                    eb:85
                Exponent: 65537 (0x10001)
        X509v3 extensions:
            X509v3 Subject Key Identifier: 
                39:63:E2:A8:58:44:28:31:9A:84:AF:F7:14:3C:19:B4:53:9F:8F:FE
            X509v3 Authority Key Identifier: 
                keyid:16:83:7B:0D:1B:36:26:C9:08:FC:21:ED:EA:DE:6F:02:B5:18:B1:37

            X509v3 Basic Constraints: 
                CA:FALSE
            X509v3 Key Usage: 
                Digital Signature, Key Encipherment
            X509v3 Subject Alternative Name: 
                DNS:node2.quorum.org
            Netscape Comment: 
                OpenSSL Generated Certificate
    Signature Algorithm: sha256WithRSAEncryption
         1e:fd:20:c7:e1:12:07:fb:82:fd:00:8e:d6:2c:2a:5b:68:63:
         2f:23:9e:97:71:52:a5:41:bd:64:0f:d8:32:ee:39:99:fb:34:
         40:8e:f4:ec:99:24:ce:cb:8d:1a:f4:fc:5e:4b:0d:7c:b6:82:
         ac:3c:a9:8e:d5:09:a7:ed:db:1f:42:27:69:7c:ff:6e:c0:4d:
         6a:ca:12:df:2a:5a:37:5d:0a:9d:00:e6:bd:14:8d:15:b1:bf:
         ba:b8:30:6d:2a:93:6d:96:96:39:f3:05:3a:88:a4:a0:72:99:
         03:da:2b:0c:25:8f:62:be:38:8f:02:42:c9:4f:3a:d7:d3:ac:
         8d:b6:fc:68:c2:cf:71:e0:f3:e9:0e:9b:77:09:5e:d8:c5:fd:
         52:3e:a5:c0:be:88:6a:3f:32:54:4f:ed:bc:82:da:a2:ac:0b:
         d6:81:56:71:9b:f1:5b:f7:1e:9d:43:cb:02:e1:2f:05:e7:3a:
         98:da:cf:28:13:3f:ea:a7:f0:e2:7b:b2:da:4f:29:1a:34:cf:
         66:1b:db:48:78:c6:0c:f0:ed:87:f9:e2:3e:05:28:82:da:01:
         0a:e0:be:30:88:d2:ed:57:ab:d9:9f:aa:19:fe:41:6a:ba:97:
         5f:34:fc:79:23:27:62:ad:73:e6:f9:6e:1f:72:40:63:7d:69:
         10:90:9a:b0:9b:52:3f:f9:9d:ac:59:8a:6e:33:30:46:97:6e:
         e5:74:a6:98:83:71:7f:52:43:ce:25:92:2f:72:f4:94:c0:ed:
         c9:2e:42:95:5d:ab:06:9e:d9:c1:65:c3:0c:f8:46:3a:5c:b7:
         fd:1c:08:32:4f:aa:5f:ee:bf:39:ab:da:e0:3c:51:7c:fe:dc:
         b7:9e:10:06:a1:e5:d1:36:33:c0:d1:0d:5e:7e:c5:6f:ab:88:
         99:95:8a:42:c0:7d:c8:be:ed:9d:92:25:4a:b4:66:97:62:36:
         60:82:79:8e:c5:cf:79:3f:b9:23:41:ed:21:bd:b3:d0:f0:06:
         30:ec:2a:a5:ad:10:46:1f:68:e7:ca:24:79:d3:08:15:4a:4c:
         6a:46:fb:46:60:32:a2:a1:22:5b:a2:c8:8a:28:f8:be:11:fb:
         ff:d1:9f:9d:c2:59:a8:7c:22:a4:ae:ef:2d:d6:1e:4e:06:a1:
         63:00:12:ea:10:53:e6:a7:61:94:e6:c9:26:2a:f1:e8:3f:3e:
         21:29:df:fd:1f:11:79:f1:65:a2:8a:d7:a9:77:82:2a:d0:4c:
         5c:91:28:4d:1f:b8:2d:3d:c9:54:56:1c:69:0c:2e:e8:1d:f0:
         b6:d0:bb:86:e2:5e:fb:1d:a6:54:bb:c7:cc:b9:45:86:a0:a6:
         ad:d9:6f:08:a5:e6:2f:20
-----BEGIN CERTIFICATE-----
MIIFJzCCAw+gAwIBAgIBAjANBgkqhkiG9w0BAQsFADCBqTELMAkGA1UEBhMCVVMx
EzARBgNVBAgMCkNhbGlmb3JuaWExEjAQBgNVBAcMCVN1bm55dmFsZTEZMBcGA1UE
CgwQVGVzdCBDQSwgTGltaXRlZDEjMCEGA1UECwwaU2VydmVyIFJlc2VhcmNoIERl
cGFydG1lbnQxFTATBgNVBAMMDHRlc3Qucm9vdC5jYTEaMBgGCSqGSIb3DQEJARYL
dGVzdEBjYS5vcmcwHhcNMTUxMjA1MDgwMDE5WhcNMTgwODMxMDgwMDE5WjBbMQsw
CQYDVQQGEwJVUzETMBEGA1UECAwKQ2FsaWZvcm5pYTESMBAGA1UEBwwJU3Vubnl2
YWxlMRMwEQYDVQQKDApRdW9ydW0gSW5jMQ4wDAYDVQQDDAVub2RlMjCCASIwDQYJ
KoZIhvcNAQEBBQADggEPADCCAQoCggEBALwh3oidmQjFaCv0PLgQOTeTCRxUGi0Y
2akC3bkNIN8Pt36760Ap6hEnb7n5PuThSqGXvfukM6Vknc0Iq0lDno7VVifmcNWL
sj/cnoc3cDpeNqn9dg34ythGLXfrnwkHrVvNBxrU+hZWijC/ODJUvDHDqlv4jFUe
AIXiZnslk0ROkpnXyFrnGzMu6fc1tRfpiFozY+uSIwHC758Tuov4Hshv+eb7kTnt
bbSSoUm9IHvlYMiJV4NTyY1dtBa+vYB2gmmfytuYIjM03btI/jGWvJc6GroSk/oz
W6mnInpub7cSS3VAWU9bbim2l6ylGU1inIg0INsK9N+LEWVNBI3X64UCAwEAAaOB
pjCBozAdBgNVHQ4EFgQUOWPiqFhEKDGahK/3FDwZtFOfj/4wHwYDVR0jBBgwFoAU
FoN7DRs2JskI/CHt6t5vArUYsTcwCQYDVR0TBAIwADALBgNVHQ8EBAMCBaAwGwYD
VR0RBBQwEoIQbm9kZTIucXVvcnVtLm9yZzAsBglghkgBhvhCAQ0EHxYdT3BlblNT
TCBHZW5lcmF0ZWQgQ2VydGlmaWNhdGUwDQYJKoZIhvcNAQELBQADggIBAB79IMfh
Egf7gv0AjtYsKltoYy8jnpdxUqVBvWQP2DLuOZn7NECO9OyZJM7LjRr0/F5LDXy2
gqw8qY7VCaft2x9CJ2l8/27ATWrKEt8qWjddCp0A5r0UjRWxv7q4MG0qk22Wljnz
BTqIpKBymQPaKwwlj2K+OI8CQslPOtfTrI22/GjCz3Hg8+kOm3cJXtjF/VI+pcC+
iGo/MlRP7byC2qKsC9aBVnGb8Vv3Hp1DywLhLwXnOpjazygTP+qn8OJ7stpPKRo0
z2Yb20h4xgzw7Yf54j4FKILaAQrgvjCI0u1Xq9mfqhn+QWq6l180/HkjJ2Ktc+b5
bh9yQGN9aRCQmrCbUj/5naxZim4zMEaXbuV0ppiDcX9SQ84lki9y9JTA7ckuQpVd
qwae2cFlwwz4Rjpct/0cCDJPql/uvzmr2uA8UXz+3LeeEAah5dE2M8DRDV5+xW+r
iJmVikLAfci+7Z2SJUq0ZpdiNmCCeY7Fz3k/uSNB7SG9s9DwBjDsKqWtEEYfaOfK
JHnTCBVKTGpG+0ZgMqKhIluiyIoo+L4R+//Rn53CWah8IqSu7y3WHk4GoWMAEuoQ
U+anYZTmySYq8eg/PiEp3/0fEXnxZaKK16l3girQTFyRKE0fuC09yVRWHGkMLugd
8LbQu4biXvsdplS7x8y5RYagpq3Zbwil5i8g
-----END CERTIFICATE-----
