Certificate:
    Data:
        Version: 3 (0x2)
        Serial Number: 1 (0x1)
    Signature Algorithm: sha256WithRSAEncryption
        Issuer: C=US, ST=California, L=Sunnyvale, O=Test CA, Limited, OU=Server Research Department, CN=test.root.ca/emailAddress=test@ca.org
        Validity
            Not Before: Dec  5 07:58:29 2015 GMT
            Not After : Aug 31 07:58:29 2018 GMT
        Subject: C=US, ST=California, L=Sunnyvale, O=Quorum Inc, CN=node1
        Subject Public Key Info:
            Public Key Algorithm: rsaEncryption
                Public-Key: (2048 bit)
                Modulus:
                    00:a6:da:cb:76:56:9d:95:64:d0:0f:b9:d7:19:b3:
                    f7:b0:46:52:b8:bc:cc:30:3f:c5:27:a5:06:8a:b7:
                    30:9f:8c:e9:a4:e6:eb:1d:bc:60:6b:3c:fc:a4:9d:
                    6a:b0:4e:72:af:a7:f7:10:52:d5:06:68:8b:f9:05:
                    3f:f1:1f:f4:4c:7f:32:9d:c0:02:00:5f:3e:ae:a1:
                    7a:5e:2f:16:f2:f4:0d:38:c8:94:f8:be:23:d0:03:
                    4e:a4:7a:51:61:73:4e:2c:b1:4d:0d:87:c2:b6:8f:
                    56:6b:7d:ad:10:c0:0e:dd:0d:9d:87:1d:39:c7:aa:
                    e5:4e:05:c1:89:ca:3d:05:19:d4:f8:fc:29:ba:09:
                    07:df:83:c1:6d:ab:d2:cc:f1:ea:86:ba:02:9e:d7:
                    0e:92:e3:62:06:dd:71:29:5b:a8:53:bf:d3:32:33:
                    7d:d4:e8:4a:f1:f3:53:05:4e:8d:32:da:8b:28:d3:
                    b1:5f:a9:c1:9a:62:bd:a5:74:78:4b:8e:d2:9d:d4:
                    38:f5:85:f2:3f:f0:32:29:04:4a:0e:cf:c9:67:b1:
                    66:30:75:ea:c5:d1:9f:cf:2a:4d:aa:af:92:fd:e1:
                    4d:97:9e:e8:f7:42:64:09:b4:23:17:4e:d7:29:42:
                    b4:6c:61:b4:0d:c7:bf:e1:72:01:10:2f:fb:ba:e4:
                    3a:c7
                Exponent: 65537 (0x10001)
        X509v3 extensions:
            X509v3 Subject Key Identifier: 
                09:3F:41:7D:C4:53:52:56:99:B3:B1:C9:45:94:E5:1C:5D:E6:A5:C9
            X509v3 Authority Key Identifier: 
                keyid:16:83:7B:0D:1B:36:26:C9:08:FC:21:ED:EA:DE:6F:02:B5:18:B1:37

            X509v3 Basic Constraints: 
                CA:FALSE
            X509v3 Key Usage: 
                Digital Signature, Key Encipherment
            X509v3 Subject Alternative Name: 
                DNS:node1.quorum.org
            Netscape Comment: 
                OpenSSL Generated Certificate
    Signature Algorithm: sha256WithRSAEncryption
         7b:7b:9e:85:7d:d5:7f:86:8e:52:11:9a:c3:72:03:1f:77:7f:
         24:2d:e2:a1:70:59:cb:d7:1b:c4:a8:f5:99:9d:53:6d:02:10:
         ce:7c:28:33:83:9f:be:e2:2b:36:f6:85:21:7f:eb:cd:25:a1:
         b9:de:60:96:09:6d:43:11:8e:32:7e:e1:35:e3:1e:00:cb:d7:
         ad:93:cd:21:27:cc:0f:c6:f5:27:ba:5b:a5:73:14:eb:c7:39:
         a9:c3:a8:15:08:bf:87:76:d9:21:69:8e:f5:d6:29:e1:6b:7d:
         92:4e:1f:71:11:55:61:94:0f:82:7e:29:c2:a8:8e:c6:f9:51:
         c8:74:b9:e1:86:1d:27:2b:34:87:51:49:52:45:4b:c3:10:e2:
         91:95:93:ab:60:d8:fa:76:66:e2:e2:60:98:e3:ff:80:94:65:
         1c:6f:91:ea:5c:fa:58:37:19:a2:34:f6:52:8e:b6:22:ea:df:
         af:65:93:f3:00:95:d9:94:b0:dc:e2:8f:60:15:48:18:5b:51:
         4e:4c:7b:a1:44:60:3c:97:a2:7f:36:cd:78:f1:4d:3e:e8:22:
         3e:8e:18:e2:c1:a5:fa:12:ab:a9:e9:1a:67:6a:64:61:d1:0c:
         ed:25:ae:49:32:f6:46:82:86:8b:83:2e:89:fd:59:9d:44:e6:
         8e:84:a0:30:a6:6f:af:b8:3c:86:45:1e:29:f6:cd:85:b0:22:
         ba:fa:c9:24:9f:86:2d:51:e6:57:13:d5:74:a8:2a:8b:0a:a9:
         19:aa:c3:e2:f9:ba:ca:8a:c6:d3:84:a9:76:08:ba:88:3c:a2:
         09:be:5d:03:11:d6:65:77:4c:56:6a:2b:0c:55:bb:a8:5e:04:
         6d:69:25:d8:36:91:85:1e:da:8c:f5:85:8b:14:df:8e:c6:b6:
         9b:d3:cb:ad:35:ba:72:ba:95:a8:7e:fa:a0:20:8e:47:5c:d8:
         59:ac:2e:aa:a5:46:be:63:51:25:37:06:e6:ea:8e:f5:fd:38:
         3b:bb:32:fd:89:80:49:ab:b6:4c:6c:b4:44:ff:73:eb:73:e9:
         d7:4e:60:8c:cc:19:f2:b5:35:08:db:86:08:a5:30:65:b3:a7:
         57:e3:be:a9:99:a2:07:a6:ac:06:50:39:76:a7:73:f7:a7:4b:
         a7:f8:3c:59:7a:8a:f0:00:58:ee:95:a2:15:b3:da:a2:d5:7f:
         0c:0b:63:44:40:93:82:62:c4:61:d8:96:27:9e:26:19:0e:5f:
         c1:04:aa:06:d6:0f:d2:7c:4b:0b:f6:75:44:01:ef:a0:6a:55:
         6e:52:da:d4:bb:68:99:d0:25:49:72:e7:17:06:50:93:8c:07:
         e0:fa:11:79:8f:88:1d:67
-----BEGIN CERTIFICATE-----
MIIFJzCCAw+gAwIBAgIBATANBgkqhkiG9w0BAQsFADCBqTELMAkGA1UEBhMCVVMx
EzARBgNVBAgMCkNhbGlmb3JuaWExEjAQBgNVBAcMCVN1bm55dmFsZTEZMBcGA1UE
CgwQVGVzdCBDQSwgTGltaXRlZDEjMCEGA1UECwwaU2VydmVyIFJlc2VhcmNoIERl
cGFydG1lbnQxFTATBgNVBAMMDHRlc3Qucm9vdC5jYTEaMBgGCSqGSIb3DQEJARYL
dGVzdEBjYS5vcmcwHhcNMTUxMjA1MDc1ODI5WhcNMTgwODMxMDc1ODI5WjBbMQsw
CQYDVQQGEwJVUzETMBEGA1UECAwKQ2FsaWZvcm5pYTESMBAGA1UEBwwJU3Vubnl2
YWxlMRMwEQYDVQQKDApRdW9ydW0gSW5jMQ4wDAYDVQQDDAVub2RlMTCCASIwDQYJ
KoZIhvcNAQEBBQADggEPADCCAQoCggEBAKbay3ZWnZVk0A+51xmz97BGUri8zDA/
xSelBoq3MJ+M6aTm6x28YGs8/KSdarBOcq+n9xBS1QZoi/kFP/Ef9Ex/Mp3AAgBf
Pq6hel4vFvL0DTjIlPi+I9ADTqR6UWFzTiyxTQ2HwraPVmt9rRDADt0NnYcdOceq
5U4FwYnKPQUZ1Pj8KboJB9+DwW2r0szx6oa6Ap7XDpLjYgbdcSlbqFO/0zIzfdTo
SvHzUwVOjTLaiyjTsV+pwZpivaV0eEuO0p3UOPWF8j/wMikESg7PyWexZjB16sXR
n88qTaqvkv3hTZee6PdCZAm0IxdO1ylCtGxhtA3Hv+FyARAv+7rkOscCAwEAAaOB
pjCBozAdBgNVHQ4EFgQUCT9BfcRTUlaZs7HJRZTlHF3mpckwHwYDVR0jBBgwFoAU
FoN7DRs2JskI/CHt6t5vArUYsTcwCQYDVR0TBAIwADALBgNVHQ8EBAMCBaAwGwYD
VR0RBBQwEoIQbm9kZTEucXVvcnVtLm9yZzAsBglghkgBhvhCAQ0EHxYdT3BlblNT
TCBHZW5lcmF0ZWQgQ2VydGlmaWNhdGUwDQYJKoZIhvcNAQELBQADggIBAHt7noV9
1X+GjlIRmsNyAx93fyQt4qFwWcvXG8So9ZmdU20CEM58KDODn77iKzb2hSF/680l
obneYJYJbUMRjjJ+4TXjHgDL162TzSEnzA/G9Se6W6VzFOvHOanDqBUIv4d22SFp
jvXWKeFrfZJOH3ERVWGUD4J+KcKojsb5Uch0ueGGHScrNIdRSVJFS8MQ4pGVk6tg
2Pp2ZuLiYJjj/4CUZRxvkepc+lg3GaI09lKOtiLq369lk/MAldmUsNzij2AVSBhb
UU5Me6FEYDyXon82zXjxTT7oIj6OGOLBpfoSq6npGmdqZGHRDO0lrkky9kaChouD
Lon9WZ1E5o6EoDCmb6+4PIZFHin2zYWwIrr6ySSfhi1R5lcT1XSoKosKqRmqw+L5
usqKxtOEqXYIuog8ogm+XQMR1mV3TFZqKwxVu6heBG1pJdg2kYUe2oz1hYsU347G
tpvTy601unK6lah++qAgjkdc2FmsLqqlRr5jUSU3BubqjvX9ODu7Mv2JgEmrtkxs
tET/c+tz6ddOYIzMGfK1NQjbhgilMGWzp1fjvqmZogemrAZQOXanc/enS6f4PFl6
ivAAWO6VohWz2qLVfwwLY0RAk4JixGHYlieeJhkOX8EEqgbWD9J8Swv2dUQB76Bq
VW5S2tS7aJnQJUly5xcGUJOMB+D6EXmPiB1n
-----END CERTIFICATE-----
