Certificate:
    Data:
        Version: 3 (0x2)
        Serial Number: 3 (0x3)
    Signature Algorithm: sha256WithRSAEncryption
        Issuer: C=US, ST=California, L=Sunnyvale, O=Test CA, Limited, OU=Server Research Department, CN=testbad.root.ca/emailAddress=testbad@ca.org
        Validity
            Not Before: Dec 10 03:52:39 2015 GMT
            Not After : Sep  5 03:52:39 2018 GMT
        Subject: C=US, ST=California, L=Sunnyvale, O=Quorum Inc, CN=node3
        Subject Public Key Info:
            Public Key Algorithm: rsaEncryption
                Public-Key: (2048 bit)
                Modulus:
                    00:db:e7:07:ea:89:78:4d:49:f6:e7:54:ca:b1:9b:
                    d3:a0:d2:18:9e:bc:63:16:42:ec:22:68:a1:5c:bf:
                    3c:b7:0b:c5:6d:d0:5f:e6:a1:4e:fc:64:b3:04:4b:
                    95:e9:6c:03:9a:c2:55:8c:03:5c:be:3f:e2:3e:6d:
                    f5:e2:3d:01:8e:18:1b:ae:44:88:aa:1b:e6:23:7e:
                    c6:87:13:52:ff:cd:ea:fa:92:29:e7:32:b4:4a:c5:
                    e1:5c:33:c1:8d:31:2c:90:8d:a1:b1:2d:10:95:d5:
                    52:12:3c:d6:a5:c5:6c:54:76:b5:2b:4e:fb:c3:da:
                    bc:a7:0a:3e:0a:7f:76:49:0e:fd:1f:f2:3c:7c:a7:
                    f1:fa:c3:ef:0e:56:1d:25:e4:d5:f0:e5:9f:a9:60:
                    ca:5d:7b:69:af:99:e0:0c:08:7b:af:7b:00:4c:37:
                    b6:8d:49:4c:f2:87:04:c3:9e:47:f0:7e:d5:63:52:
                    07:ed:b3:5b:1d:f0:ad:28:65:85:64:04:de:54:a2:
                    40:4c:fe:c1:4f:00:2e:c7:50:1e:c0:3b:7d:41:dd:
                    33:b9:c7:8b:b1:e8:17:99:72:6f:47:33:9e:0a:2a:
                    37:5f:77:1f:12:14:42:d9:fb:ea:45:93:eb:e2:89:
                    47:6b:f6:9d:5e:c9:a2:f5:eb:0a:24:ec:0d:02:e9:
                    22:4d
                Exponent: 65537 (0x10001)
        X509v3 extensions:
            X509v3 Subject Key Identifier: 
                32:C6:8B:8E:1C:2D:87:AD:AC:A7:7B:3A:46:CE:0A:4C:18:2E:79:DB
            X509v3 Authority Key Identifier: 
                keyid:04:6B:EE:64:BF:1D:E5:94:D2:A2:D1:89:AD:18:22:37:70:28:CB:A6

            X509v3 Basic Constraints: 
                CA:FALSE
            X509v3 Key Usage: 
                Digital Signature, Key Encipherment
            X509v3 Subject Alternative Name: 
                DNS:node3.quorum.org
            Netscape Comment: 
                OpenSSL Generated Certificate
    Signature Algorithm: sha256WithRSAEncryption
         25:d3:28:ea:ea:17:c4:85:2a:a6:94:42:c2:8d:7c:9f:08:d9:
         d0:1f:b6:7c:93:82:1c:85:5c:d6:a4:69:bc:4a:bf:6e:e2:72:
         75:97:82:77:c2:26:96:33:94:31:09:59:75:12:76:99:d7:6a:
         45:d5:c6:ef:a2:58:55:a5:df:56:67:70:cb:8c:bf:ac:4c:38:
         b7:58:5b:7b:82:07:8b:1b:42:dd:ae:d4:a8:5f:86:8f:81:8e:
         56:95:cd:ba:a6:ed:cf:dd:cb:3c:82:a0:a6:5b:bd:aa:ff:2f:
         2d:7d:f7:81:24:1c:03:f8:32:69:9e:4a:da:43:08:db:46:81:
         af:e6:38:ba:38:b2:60:ef:c0:b5:e9:bc:6a:cf:8c:0e:41:d8:
         b5:f1:1e:cb:9d:c8:52:c9:84:c8:b9:a3:33:20:ba:94:46:3a:
         e8:d6:77:08:d3:ef:46:60:4e:9b:90:07:05:ee:07:d2:cc:e5:
         d9:f7:5f:d4:31:88:07:89:da:22:5c:a6:4f:d2:e4:4e:ee:37:
         d6:18:9c:71:54:03:de:41:56:e3:07:03:53:b4:87:a0:24:00:
         cc:99:50:d7:4d:03:78:75:e9:96:bf:c6:72:2e:16:1f:72:e6:
         02:57:ad:ed:02:88:15:43:34:3d:f3:fe:15:ff:99:ea:aa:18:
         71:5f:66:72:ea:53:71:f1:94:ff:ae:95:c2:d1:2b:7f:12:48:
         b7:1a:89:4b:e5:01:10:ec:f0:90:55:28:91:1f:b6:95:82:76:
         ca:04:06:59:72:22:46:79:2a:b6:18:aa:83:51:fd:4e:64:b7:
         56:8d:70:3f:94:af:4c:39:40:3d:98:f9:0d:a3:1c:d5:2a:68:
         a9:84:de:9b:23:f2:82:58:1a:88:e3:2d:61:1b:c1:95:45:f6:
         48:d9:6e:4c:67:7e:e4:00:26:71:ae:a2:18:bc:96:a3:1d:27:
         40:f8:db:4a:3e:66:41:6a:d3:e0:f5:ba:d1:9c:3f:0d:17:4a:
         59:40:3e:d3:7b:7d:0a:c0:72:6a:09:33:05:a4:16:ae:28:73:
         3c:04:90:35:59:e1:bf:6d:37:93:25:73:1c:dc:97:d6:e5:3c:
         1e:9b:39:b8:97:bf:ef:70:a4:84:ac:7f:2b:cb:c7:ab:c5:4e:
         04:36:cd:65:5c:39:07:8b:46:93:14:e9:ab:a7:83:dc:da:e3:
         32:5a:36:7e:27:df:82:78:a2:2f:5f:75:64:97:0a:78:bb:58:
         96:7e:48:2b:2a:97:f5:94:9c:10:21:06:9c:90:6a:0e:a7:6c:
         57:7f:37:77:2b:8c:6e:f4:9d:40:ab:9d:3f:fa:b5:d7:fc:96:
         9e:ad:18:65:c7:0a:db:6a
-----BEGIN CERTIFICATE-----
MIIFLTCCAxWgAwIBAgIBAzANBgkqhkiG9w0BAQsFADCBrzELMAkGA1UEBhMCVVMx
EzARBgNVBAgMCkNhbGlmb3JuaWExEjAQBgNVBAcMCVN1bm55dmFsZTEZMBcGA1UE
CgwQVGVzdCBDQSwgTGltaXRlZDEjMCEGA1UECwwaU2VydmVyIFJlc2VhcmNoIERl
cGFydG1lbnQxGDAWBgNVBAMMD3Rlc3RiYWQucm9vdC5jYTEdMBsGCSqGSIb3DQEJ
ARYOdGVzdGJhZEBjYS5vcmcwHhcNMTUxMjEwMDM1MjM5WhcNMTgwOTA1MDM1MjM5
WjBbMQswCQYDVQQGEwJVUzETMBEGA1UECAwKQ2FsaWZvcm5pYTESMBAGA1UEBwwJ
U3Vubnl2YWxlMRMwEQYDVQQKDApRdW9ydW0gSW5jMQ4wDAYDVQQDDAVub2RlMzCC
ASIwDQYJKoZIhvcNAQEBBQADggEPADCCAQoCggEBANvnB+qJeE1J9udUyrGb06DS
GJ68YxZC7CJooVy/PLcLxW3QX+ahTvxkswRLlelsA5rCVYwDXL4/4j5t9eI9AY4Y
G65EiKob5iN+xocTUv/N6vqSKecytErF4VwzwY0xLJCNobEtEJXVUhI81qXFbFR2
tStO+8PavKcKPgp/dkkO/R/yPHyn8frD7w5WHSXk1fDln6lgyl17aa+Z4AwIe697
AEw3to1JTPKHBMOeR/B+1WNSB+2zWx3wrShlhWQE3lSiQEz+wU8ALsdQHsA7fUHd
M7nHi7HoF5lyb0czngoqN193HxIUQtn76kWT6+KJR2v2nV7JovXrCiTsDQLpIk0C
AwEAAaOBpjCBozAdBgNVHQ4EFgQUMsaLjhwth62sp3s6Rs4KTBguedswHwYDVR0j
BBgwFoAUBGvuZL8d5ZTSotGJrRgiN3Aoy6YwCQYDVR0TBAIwADALBgNVHQ8EBAMC
BaAwGwYDVR0RBBQwEoIQbm9kZTMucXVvcnVtLm9yZzAsBglghkgBhvhCAQ0EHxYd
T3BlblNTTCBHZW5lcmF0ZWQgQ2VydGlmaWNhdGUwDQYJKoZIhvcNAQELBQADggIB
ACXTKOrqF8SFKqaUQsKNfJ8I2dAftnyTghyFXNakabxKv27icnWXgnfCJpYzlDEJ
WXUSdpnXakXVxu+iWFWl31ZncMuMv6xMOLdYW3uCB4sbQt2u1Khfho+BjlaVzbqm
7c/dyzyCoKZbvar/Ly1994EkHAP4MmmeStpDCNtGga/mOLo4smDvwLXpvGrPjA5B
2LXxHsudyFLJhMi5ozMgupRGOujWdwjT70ZgTpuQBwXuB9LM5dn3X9QxiAeJ2iJc
pk/S5E7uN9YYnHFUA95BVuMHA1O0h6AkAMyZUNdNA3h16Za/xnIuFh9y5gJXre0C
iBVDND3z/hX/meqqGHFfZnLqU3HxlP+ulcLRK38SSLcaiUvlARDs8JBVKJEftpWC
dsoEBllyIkZ5KrYYqoNR/U5kt1aNcD+Ur0w5QD2Y+Q2jHNUqaKmE3psj8oJYGojj
LWEbwZVF9kjZbkxnfuQAJnGuohi8lqMdJ0D420o+ZkFq0+D1utGcPw0XSllAPtN7
fQrAcmoJMwWkFq4oczwEkDVZ4b9tN5Mlcxzcl9blPB6bObiXv+9wpISsfyvLx6vF
TgQ2zWVcOQeLRpMU6aung9za4zJaNn4n34J4oi9fdWSXCni7WJZ+SCsql/WUnBAh
BpyQag6nbFd/N3crjG70nUCrnT/6tdf8lp6tGGXHCttq
-----END CERTIFICATE-----
