Certificate:
    Data:
        Version: 3 (0x2)
        Serial Number: 1 (0x1)
    Signature Algorithm: sha256WithRSAEncryption
        Issuer: C=US, ST=California, L=Sunnyvale, O=Test CA, Limited, OU=Server Research Department, CN=testbad.root.ca/emailAddress=testbad@ca.org
        Validity
            Not Before: Dec 10 03:51:45 2015 GMT
            Not After : Sep  5 03:51:45 2018 GMT
        Subject: C=US, ST=California, L=Sunnyvale, O=Quorum Inc, CN=node1
        Subject Public Key Info:
            Public Key Algorithm: rsaEncryption
                Public-Key: (2048 bit)
                Modulus:
                    00:ee:f8:dc:17:bd:e0:bb:38:be:a1:44:63:89:a4:
                    9d:01:93:3a:3f:74:0b:eb:76:41:2a:93:1d:dd:00:
                    07:b2:9e:8f:d1:26:26:e3:62:e8:04:75:e4:c2:f8:
                    2f:c1:8b:ac:9c:2a:1e:92:48:fb:e9:ca:df:67:53:
                    0c:e3:ff:7b:d1:ef:9c:7a:5e:9d:ab:65:a6:a0:ed:
                    59:12:97:60:23:ce:93:bb:72:51:e7:79:f4:6c:0c:
                    ce:75:7d:2d:f6:7b:ac:bd:52:b9:e0:fb:7a:95:07:
                    0a:d4:2b:72:23:04:b2:69:98:8e:af:4e:f9:16:ba:
                    84:86:37:88:19:b6:46:e3:40:92:1e:03:42:d4:2e:
                    54:2f:79:b6:1c:e8:e2:4b:9f:7a:86:a6:90:f7:74:
                    63:4d:7e:ae:33:33:25:a3:33:ed:83:c8:7e:e7:7b:
                    be:22:64:bc:84:cd:a4:ae:ec:53:65:5d:66:36:1a:
                    91:ab:34:b9:d4:60:84:9c:6c:a2:b0:df:2c:e5:23:
                    c4:d9:14:7d:b5:cb:c4:f1:8d:43:f7:3a:8d:2f:c9:
                    6a:87:49:08:65:78:f1:7c:d7:84:f1:a2:ef:3f:b4:
                    55:16:51:54:14:90:a9:2f:b3:c0:90:a0:f2:c5:0f:
                    f8:42:e9:1a:a8:92:84:29:47:69:08:c4:da:0b:ea:
                    dc:29
                Exponent: 65537 (0x10001)
        X509v3 extensions:
            X509v3 Subject Key Identifier: 
                34:F8:23:9A:8A:07:25:38:DC:95:38:8E:AD:DC:A9:E2:A2:36:E2:39
            X509v3 Authority Key Identifier: 
                keyid:04:6B:EE:64:BF:1D:E5:94:D2:A2:D1:89:AD:18:22:37:70:28:CB:A6

            X509v3 Basic Constraints: 
                CA:FALSE
            X509v3 Key Usage: 
                Digital Signature, Key Encipherment
            X509v3 Subject Alternative Name: 
                DNS:node1.quorum.org
            Netscape Comment: 
                OpenSSL Generated Certificate
    Signature Algorithm: sha256WithRSAEncryption
         30:28:15:9c:1a:d5:32:c9:f9:37:b4:c4:6d:d0:2b:ae:6e:0f:
         10:ba:01:2b:19:66:e1:54:fd:f0:2b:3b:78:50:a4:27:4a:d6:
         96:92:04:f3:8a:1a:aa:f3:8c:95:68:40:62:7a:7b:00:12:66:
         e5:e7:bb:5f:10:a5:7b:ef:64:6e:70:0f:f4:89:9d:cb:c3:59:
         e0:2c:0f:81:78:89:e1:9a:0d:51:fb:61:8d:52:cf:0b:a0:ae:
         ea:5a:34:4d:d8:f3:eb:b0:45:3d:e0:95:39:a0:b0:1a:17:38:
         df:04:81:b4:58:f5:30:08:fd:dd:6b:f6:3c:c9:d2:c0:e2:c7:
         fc:4f:1e:21:69:d4:86:ba:ba:8d:75:5d:cb:d6:f7:3b:68:c2:
         1c:36:14:ef:b9:e3:3d:72:70:98:33:fb:42:73:ae:99:91:2b:
         08:66:be:f7:bf:56:e1:07:3f:32:3e:ff:b6:fb:d2:0e:bd:bb:
         a4:49:18:c5:24:b1:09:f6:fc:bb:25:79:b4:2e:0d:18:44:6e:
         8d:4f:43:00:60:da:0f:0e:20:b6:cc:c6:0f:ba:da:d0:c8:0e:
         92:6e:8c:e4:67:d0:e5:bd:f9:17:52:98:65:04:f5:f7:39:65:
         5c:f7:c5:17:1f:4c:52:55:80:7a:b5:b7:12:82:c3:6e:ae:4d:
         02:b0:09:cb:9d:e1:d2:40:99:cb:7d:f6:67:89:ba:67:a5:ab:
         9f:df:0c:29:91:de:5f:59:b9:a4:b3:6f:cd:7e:52:cd:7e:82:
         e6:7d:ac:c0:16:82:c1:66:7b:24:ad:df:c3:56:b8:57:04:b0:
         ec:a1:8f:d9:3d:6a:31:0d:13:21:b3:d3:1d:19:d5:cc:55:b2:
         38:ec:fc:c9:a8:48:2d:ff:72:83:6f:db:ea:27:ce:f5:6d:55:
         90:19:bb:1d:ee:b5:99:30:42:0a:59:1c:69:1e:74:6b:f5:d5:
         e7:9d:ed:a8:4c:65:30:ac:c4:da:24:3c:15:d0:89:d1:6a:45:
         2c:d2:7b:4f:8d:f5:54:d9:8e:53:bc:35:7a:35:1b:32:94:69:
         d3:6f:3f:00:ed:72:4a:5b:64:0e:84:29:e6:53:ef:fc:91:3c:
         b9:42:6d:ee:39:5e:71:b2:3d:c5:9b:7c:5a:d0:05:b7:d4:fb:
         5e:f7:89:32:de:6b:f5:83:91:4b:b6:a2:2c:45:25:7b:9a:02:
         c0:01:1c:af:c9:df:50:7a:83:94:da:6d:6f:19:24:98:8c:51:
         27:c5:a8:4b:41:7e:bb:60:1b:c9:a4:5e:51:bd:f1:de:b5:cb:
         8e:69:77:fe:58:3a:d5:8e:d1:05:42:73:47:0d:b2:ac:f1:3f:
         0e:60:3a:b8:7c:b7:31:d1
-----BEGIN CERTIFICATE-----
MIIFLTCCAxWgAwIBAgIBATANBgkqhkiG9w0BAQsFADCBrzELMAkGA1UEBhMCVVMx
EzARBgNVBAgMCkNhbGlmb3JuaWExEjAQBgNVBAcMCVN1bm55dmFsZTEZMBcGA1UE
CgwQVGVzdCBDQSwgTGltaXRlZDEjMCEGA1UECwwaU2VydmVyIFJlc2VhcmNoIERl
cGFydG1lbnQxGDAWBgNVBAMMD3Rlc3RiYWQucm9vdC5jYTEdMBsGCSqGSIb3DQEJ
ARYOdGVzdGJhZEBjYS5vcmcwHhcNMTUxMjEwMDM1MTQ1WhcNMTgwOTA1MDM1MTQ1
WjBbMQswCQYDVQQGEwJVUzETMBEGA1UECAwKQ2FsaWZvcm5pYTESMBAGA1UEBwwJ
U3Vubnl2YWxlMRMwEQYDVQQKDApRdW9ydW0gSW5jMQ4wDAYDVQQDDAVub2RlMTCC
ASIwDQYJKoZIhvcNAQEBBQADggEPADCCAQoCggEBAO743Be94Ls4vqFEY4mknQGT
Oj90C+t2QSqTHd0AB7Kej9EmJuNi6AR15ML4L8GLrJwqHpJI++nK32dTDOP/e9Hv
nHpenatlpqDtWRKXYCPOk7tyUed59GwMznV9LfZ7rL1SueD7epUHCtQrciMEsmmY
jq9O+Ra6hIY3iBm2RuNAkh4DQtQuVC95thzo4kufeoamkPd0Y01+rjMzJaMz7YPI
fud7viJkvITNpK7sU2VdZjYakas0udRghJxsorDfLOUjxNkUfbXLxPGNQ/c6jS/J
aodJCGV48XzXhPGi7z+0VRZRVBSQqS+zwJCg8sUP+ELpGqiShClHaQjE2gvq3CkC
AwEAAaOBpjCBozAdBgNVHQ4EFgQUNPgjmooHJTjclTiOrdyp4qI24jkwHwYDVR0j
BBgwFoAUBGvuZL8d5ZTSotGJrRgiN3Aoy6YwCQYDVR0TBAIwADALBgNVHQ8EBAMC
BaAwGwYDVR0RBBQwEoIQbm9kZTEucXVvcnVtLm9yZzAsBglghkgBhvhCAQ0EHxYd
T3BlblNTTCBHZW5lcmF0ZWQgQ2VydGlmaWNhdGUwDQYJKoZIhvcNAQELBQADggIB
ADAoFZwa1TLJ+Te0xG3QK65uDxC6ASsZZuFU/fArO3hQpCdK1paSBPOKGqrzjJVo
QGJ6ewASZuXnu18QpXvvZG5wD/SJncvDWeAsD4F4ieGaDVH7YY1SzwugrupaNE3Y
8+uwRT3glTmgsBoXON8EgbRY9TAI/d1r9jzJ0sDix/xPHiFp1Ia6uo11XcvW9zto
whw2FO+54z1ycJgz+0JzrpmRKwhmvve/VuEHPzI+/7b70g69u6RJGMUksQn2/Lsl
ebQuDRhEbo1PQwBg2g8OILbMxg+62tDIDpJujORn0OW9+RdSmGUE9fc5ZVz3xRcf
TFJVgHq1txKCw26uTQKwCcud4dJAmct99meJumelq5/fDCmR3l9ZuaSzb81+Us1+
guZ9rMAWgsFmeySt38NWuFcEsOyhj9k9ajENEyGz0x0Z1cxVsjjs/MmoSC3/coNv
2+onzvVtVZAZux3utZkwQgpZHGkedGv11eed7ahMZTCsxNokPBXQidFqRSzSe0+N
9VTZjlO8NXo1GzKUadNvPwDtckpbZA6EKeZT7/yRPLlCbe45XnGyPcWbfFrQBbfU
+173iTLea/WDkUu2oixFJXuaAsABHK/J31B6g5TabW8ZJJiMUSfFqEtBfrtgG8mk
XlG98d61y45pd/5YOtWO0QVCc0cNsqzxPw5gOrh8tzHR
-----END CERTIFICATE-----
