Certificate:
    Data:
        Version: 3 (0x2)
        Serial Number: 2 (0x2)
    Signature Algorithm: sha256WithRSAEncryption
        Issuer: C=US, ST=California, L=Sunnyvale, O=Test CA, Limited, OU=Server Research Department, CN=testbad.root.ca/emailAddress=testbad@ca.org
        Validity
            Not Before: Dec 10 03:52:20 2015 GMT
            Not After : Sep  5 03:52:20 2018 GMT
        Subject: C=US, ST=California, L=Sunnyvale, O=Quorum Inc, CN=node2
        Subject Public Key Info:
            Public Key Algorithm: rsaEncryption
                Public-Key: (2048 bit)
                Modulus:
                    00:9e:3a:af:7d:ff:66:7e:32:b2:ea:92:6f:ea:85:
                    8d:01:9c:32:74:07:5f:8c:d5:cb:12:7f:b6:7c:b0:
                    fc:48:59:e7:36:3d:29:e3:03:bf:da:83:7e:15:8a:
                    e4:f8:ae:b4:1b:7c:d8:79:4e:36:57:7b:d9:c8:0e:
                    a2:65:6f:2b:27:1a:64:c5:f4:11:18:e0:36:41:6b:
                    78:69:9d:6d:75:d9:df:42:72:92:22:0e:a7:22:38:
                    9e:be:fa:f3:12:5b:8b:f9:52:80:8a:fb:5a:73:fd:
                    19:a1:0e:b0:e5:99:52:a1:a1:fd:47:4a:ea:94:c8:
                    e3:8b:4c:02:4a:ce:fa:60:3f:94:fd:99:30:ea:f5:
                    03:8f:5c:f0:61:bc:3a:85:f9:44:dd:73:c4:15:9f:
                    d9:0f:f7:e0:dd:1c:de:c4:23:89:b8:58:68:43:83:
                    bb:44:3c:f3:5f:24:5b:8a:3a:72:6e:8c:d5:21:99:
                    f4:27:73:a1:52:47:d0:52:26:0a:02:c6:7f:ac:1a:
                    46:0f:84:2f:ad:3f:14:2f:e6:fa:23:f8:9a:80:d6:
                    ff:fa:42:d8:be:1a:db:a2:d2:32:e5:6f:15:28:4f:
                    0c:7a:0f:50:b0:36:6f:88:37:9e:e2:ef:e8:f4:38:
                    c2:98:bc:80:cd:08:8b:7d:ac:a9:b1:c8:e8:11:d3:
                    6d:07
                Exponent: 65537 (0x10001)
        X509v3 extensions:
            X509v3 Subject Key Identifier: 
                78:43:8D:BD:C6:F5:C7:A7:4E:50:E2:4A:80:C5:CD:6F:60:48:6D:18
            X509v3 Authority Key Identifier: 
                keyid:04:6B:EE:64:BF:1D:E5:94:D2:A2:D1:89:AD:18:22:37:70:28:CB:A6

            X509v3 Basic Constraints: 
                CA:FALSE
            X509v3 Key Usage: 
                Digital Signature, Key Encipherment
            X509v3 Subject Alternative Name: 
                DNS:node2.quorum.org
            Netscape Comment: 
                OpenSSL Generated Certificate
    Signature Algorithm: sha256WithRSAEncryption
         6d:9b:af:93:29:47:09:ef:00:59:0a:71:e1:4b:04:25:8b:8d:
         e5:a1:b9:63:62:bc:97:9a:a7:39:45:87:84:e4:18:32:8e:ac:
         c8:a6:64:c0:63:af:3a:c4:6e:43:01:a2:92:03:38:d3:e6:de:
         4a:90:90:9e:72:a9:0d:b2:42:26:0c:b9:b7:26:6d:fa:ae:f5:
         9e:c9:62:1c:b0:0b:fa:9e:d7:c2:77:f3:9a:60:8f:24:7a:01:
         2b:fc:6f:24:18:56:ac:d1:79:a6:ed:93:d0:70:0e:19:24:ae:
         c1:3f:7b:ca:2e:fc:13:3e:e1:40:4b:e1:4c:33:dd:44:72:71:
         10:19:30:08:17:ee:d5:33:94:36:1e:37:02:10:93:25:f8:17:
         dc:46:42:f6:a8:77:37:ef:0c:f6:67:57:b9:c7:f7:fd:5c:de:
         41:5d:e2:93:1c:bf:5f:81:67:c0:74:77:a3:9c:76:f5:4d:5b:
         1f:27:60:d4:d1:b5:ee:39:c4:4d:b9:cf:4b:be:03:7d:71:32:
         37:e3:19:c8:05:e1:df:9f:84:e4:d2:7f:2a:9e:43:17:4f:7b:
         ea:66:16:0e:77:98:e1:72:12:b6:10:89:ae:c5:9d:4f:4c:48:
         d6:72:62:6c:7c:46:47:f9:09:55:21:52:f8:a1:a6:06:a9:57:
         ff:96:f3:49:2d:9b:89:00:84:ab:47:a1:ac:22:49:9f:0c:31:
         c1:6d:b8:40:73:01:2d:99:36:4b:e8:21:f5:ea:a5:66:95:7c:
         ce:c1:22:f5:da:05:e6:fb:72:ec:96:61:cf:17:f7:35:8b:f1:
         94:35:2d:6e:38:14:3f:78:69:7a:a5:42:f9:53:51:19:1d:f3:
         da:2e:19:6d:ed:72:cd:5f:d2:ea:e0:fe:96:28:16:79:32:8a:
         04:b3:81:70:c0:3a:47:2d:4f:15:65:d9:11:61:7d:f6:90:f3:
         95:91:73:53:c8:8f:38:52:51:67:bc:b5:94:b5:c8:11:55:72:
         a1:42:ba:59:56:d2:6c:f7:51:bc:3c:a2:a5:cd:ae:47:0b:03:
         dc:1e:72:70:d1:ed:d5:12:3e:ab:b6:64:0a:2f:1b:06:d0:93:
         29:c3:ac:90:be:26:c9:c3:08:2f:5b:2d:0d:62:cf:53:49:bf:
         b2:bd:51:fa:57:49:44:b3:a6:55:48:b4:f7:a2:f5:cb:6d:b7:
         c6:19:74:c7:44:4c:94:03:92:72:6c:2e:97:01:65:af:b1:71:
         60:68:e0:ec:cb:91:52:a4:e4:dc:df:2c:84:9c:2d:c3:e6:a4:
         72:11:52:d0:35:36:50:0e:ea:cd:df:e4:17:48:84:5a:d6:97:
         fd:b1:8a:e9:93:64:94:c1
-----BEGIN CERTIFICATE-----
MIIFLTCCAxWgAwIBAgIBAjANBgkqhkiG9w0BAQsFADCBrzELMAkGA1UEBhMCVVMx
EzARBgNVBAgMCkNhbGlmb3JuaWExEjAQBgNVBAcMCVN1bm55dmFsZTEZMBcGA1UE
CgwQVGVzdCBDQSwgTGltaXRlZDEjMCEGA1UECwwaU2VydmVyIFJlc2VhcmNoIERl
cGFydG1lbnQxGDAWBgNVBAMMD3Rlc3RiYWQucm9vdC5jYTEdMBsGCSqGSIb3DQEJ
ARYOdGVzdGJhZEBjYS5vcmcwHhcNMTUxMjEwMDM1MjIwWhcNMTgwOTA1MDM1MjIw
WjBbMQswCQYDVQQGEwJVUzETMBEGA1UECAwKQ2FsaWZvcm5pYTESMBAGA1UEBwwJ
U3Vubnl2YWxlMRMwEQYDVQQKDApRdW9ydW0gSW5jMQ4wDAYDVQQDDAVub2RlMjCC
ASIwDQYJKoZIhvcNAQEBBQADggEPADCCAQoCggEBAJ46r33/Zn4ysuqSb+qFjQGc
MnQHX4zVyxJ/tnyw/EhZ5zY9KeMDv9qDfhWK5PiutBt82HlONld72cgOomVvKyca
ZMX0ERjgNkFreGmdbXXZ30JykiIOpyI4nr768xJbi/lSgIr7WnP9GaEOsOWZUqGh
/UdK6pTI44tMAkrO+mA/lP2ZMOr1A49c8GG8OoX5RN1zxBWf2Q/34N0c3sQjibhY
aEODu0Q8818kW4o6cm6M1SGZ9CdzoVJH0FImCgLGf6waRg+EL60/FC/m+iP4moDW
//pC2L4a26LSMuVvFShPDHoPULA2b4g3nuLv6PQ4wpi8gM0Ii32sqbHI6BHTbQcC
AwEAAaOBpjCBozAdBgNVHQ4EFgQUeEONvcb1x6dOUOJKgMXNb2BIbRgwHwYDVR0j
BBgwFoAUBGvuZL8d5ZTSotGJrRgiN3Aoy6YwCQYDVR0TBAIwADALBgNVHQ8EBAMC
BaAwGwYDVR0RBBQwEoIQbm9kZTIucXVvcnVtLm9yZzAsBglghkgBhvhCAQ0EHxYd
T3BlblNTTCBHZW5lcmF0ZWQgQ2VydGlmaWNhdGUwDQYJKoZIhvcNAQELBQADggIB
AG2br5MpRwnvAFkKceFLBCWLjeWhuWNivJeapzlFh4TkGDKOrMimZMBjrzrEbkMB
opIDONPm3kqQkJ5yqQ2yQiYMubcmbfqu9Z7JYhywC/qe18J385pgjyR6ASv8byQY
VqzReabtk9BwDhkkrsE/e8ou/BM+4UBL4Uwz3URycRAZMAgX7tUzlDYeNwIQkyX4
F9xGQvaodzfvDPZnV7nH9/1c3kFd4pMcv1+BZ8B0d6OcdvVNWx8nYNTRte45xE25
z0u+A31xMjfjGcgF4d+fhOTSfyqeQxdPe+pmFg53mOFyErYQia7FnU9MSNZyYmx8
Rkf5CVUhUvihpgapV/+W80ktm4kAhKtHoawiSZ8MMcFtuEBzAS2ZNkvoIfXqpWaV
fM7BIvXaBeb7cuyWYc8X9zWL8ZQ1LW44FD94aXqlQvlTURkd89ouGW3tcs1f0urg
/pYoFnkyigSzgXDAOkctTxVl2RFhffaQ85WRc1PIjzhSUWe8tZS1yBFVcqFCullW
0mz3Ubw8oqXNrkcLA9wecnDR7dUSPqu2ZAovGwbQkynDrJC+JsnDCC9bLQ1iz1NJ
v7K9UfpXSUSzplVItPei9cttt8YZdMdETJQDknJsLpcBZa+xcWBo4OzLkVKk5Nzf
LIScLcPmpHIRUtA1NlAO6s3f5BdIhFrWl/2xiumTZJTB
-----END CERTIFICATE-----
